; Function Attrs: mustprogress nounwind uwtable
define internal fastcc void @_ZNSt4pairIN5Yosys6IdPathEN12_GLOBAL__N_19SimWorker11FoundYWPathEED2Ev(ptr nocapture noundef nonnull readonly align 8 dereferenceable(48) %0) unnamed_addr #3 align 2 personality ptr @__gxx_personality_v0 {
  %2 = getelementptr inbounds i8, ptr %0, i64 40
  %.val = load i32, ptr %2, align 8
  %3 = load i8, ptr @_ZN5Yosys5RTLIL8IdString17destruct_guard_okE, align 1
  %4 = and i8 %3, 1
  %5 = icmp ne i8 %4, 0
  %6 = icmp ne i32 %.val, 0
  %or.cond.i.i.i = and i1 %6, %5
  br i1 %or.cond.i.i.i, label %7, label %_ZN12_GLOBAL__N_19SimWorker11FoundYWPathD2Ev.exit

7:                                                ; preds = %1
  %8 = sext i32 %.val to i64
  %9 = load ptr, ptr @_ZN5Yosys5RTLIL8IdString24global_refcount_storage_E, align 8
  %10 = getelementptr inbounds i32, ptr %9, i64 %8
  %11 = load i32, ptr %10, align 4
  %12 = add nsw i32 %11, -1
  store i32 %12, ptr %10, align 4
  %13 = icmp sgt i32 %11, 1
  br i1 %13, label %_ZN12_GLOBAL__N_19SimWorker11FoundYWPathD2Ev.exit, label %14

14:                                               ; preds = %7
  invoke void @_ZN5Yosys5RTLIL8IdString14free_referenceEi(i32 noundef %.val)
          to label %_ZN12_GLOBAL__N_19SimWorker11FoundYWPathD2Ev.exit unwind label %15

15:                                               ; preds = %14
  %16 = landingpad { ptr, i32 }
          catch ptr null
  %17 = extractvalue { ptr, i32 } %16, 0
  tail call void @__clang_call_terminate(ptr %17) #30
  unreachable

_ZN12_GLOBAL__N_19SimWorker11FoundYWPathD2Ev.exit: ; preds = %1, %7, %14
  %18 = load ptr, ptr %0, align 8
  %19 = getelementptr inbounds i8, ptr %0, i64 8
  %20 = load ptr, ptr %19, align 8
  %.not4.i.i.i.i.i = icmp eq ptr %18, %20
  br i1 %.not4.i.i.i.i.i, label %_ZSt8_DestroyIPN5Yosys5RTLIL8IdStringES2_EvT_S4_RSaIT0_E.exit.i.i, label %.lr.ph.i.i.i.i.i

.lr.ph.i.i.i.i.i:                                 ; preds = %_ZN12_GLOBAL__N_19SimWorker11FoundYWPathD2Ev.exit, %_ZSt8_DestroyIN5Yosys5RTLIL8IdStringEEvPT_.exit.i.i.i.i.i
  %.05.i.i.i.i.i = phi ptr [ %37, %_ZSt8_DestroyIN5Yosys5RTLIL8IdStringEEvPT_.exit.i.i.i.i.i ], [ %18, %_ZN12_GLOBAL__N_19SimWorker11FoundYWPathD2Ev.exit ]
  %21 = load i32, ptr %.05.i.i.i.i.i, align 4
  %22 = load i8, ptr @_ZN5Yosys5RTLIL8IdString17destruct_guard_okE, align 1
  %23 = and i8 %22, 1
  %24 = icmp ne i8 %23, 0
  %25 = icmp ne i32 %21, 0
  %or.cond.i.i.i.i.i.i.i.i = and i1 %25, %24
  br i1 %or.cond.i.i.i.i.i.i.i.i, label %26, label %_ZSt8_DestroyIN5Yosys5RTLIL8IdStringEEvPT_.exit.i.i.i.i.i

26:                                               ; preds = %.lr.ph.i.i.i.i.i
  %27 = sext i32 %21 to i64
  %28 = load ptr, ptr @_ZN5Yosys5RTLIL8IdString24global_refcount_storage_E, align 8
  %29 = getelementptr inbounds i32, ptr %28, i64 %27
  %30 = load i32, ptr %29, align 4
  %31 = add nsw i32 %30, -1
  store i32 %31, ptr %29, align 4
  %32 = icmp sgt i32 %30, 1
  br i1 %32, label %_ZSt8_DestroyIN5Yosys5RTLIL8IdStringEEvPT_.exit.i.i.i.i.i, label %33

33:                                               ; preds = %26
  invoke void @_ZN5Yosys5RTLIL8IdString14free_referenceEi(i32 noundef %21)
          to label %_ZSt8_DestroyIN5Yosys5RTLIL8IdStringEEvPT_.exit.i.i.i.i.i unwind label %34

34:                                               ; preds = %33
  %35 = landingpad { ptr, i32 }
          catch ptr null
  %36 = extractvalue { ptr, i32 } %35, 0
  tail call void @__clang_call_terminate(ptr %36) #30
  unreachable

_ZSt8_DestroyIN5Yosys5RTLIL8IdStringEEvPT_.exit.i.i.i.i.i: ; preds = %33, %26, %.lr.ph.i.i.i.i.i
  %37 = getelementptr inbounds i8, ptr %.05.i.i.i.i.i, i64 4
  %.not.i.i.i.i.i = icmp eq ptr %37, %20
  br i1 %.not.i.i.i.i.i, label %_ZSt8_DestroyIPN5Yosys5RTLIL8IdStringES2_EvT_S4_RSaIT0_E.exitthread-pre-split.i.i, label %.lr.ph.i.i.i.i.i, !llvm.loop !123

_ZSt8_DestroyIPN5Yosys5RTLIL8IdStringES2_EvT_S4_RSaIT0_E.exitthread-pre-split.i.i: ; preds = %_ZSt8_DestroyIN5Yosys5RTLIL8IdStringEEvPT_.exit.i.i.i.i.i
  %.pr.i.i = load ptr, ptr %0, align 8
  br label %_ZSt8_DestroyIPN5Yosys5RTLIL8IdStringES2_EvT_S4_RSaIT0_E.exit.i.i

_ZSt8_DestroyIPN5Yosys5RTLIL8IdStringES2_EvT_S4_RSaIT0_E.exit.i.i: ; preds = %_ZSt8_DestroyIPN5Yosys5RTLIL8IdStringES2_EvT_S4_RSaIT0_E.exitthread-pre-split.i.i, %_ZN12_GLOBAL__N_19SimWorker11FoundYWPathD2Ev.exit
  %38 = phi ptr [ %.pr.i.i, %_ZSt8_DestroyIPN5Yosys5RTLIL8IdStringES2_EvT_S4_RSaIT0_E.exitthread-pre-split.i.i ], [ %18, %_ZN12_GLOBAL__N_19SimWorker11FoundYWPathD2Ev.exit ]
  %.not.i.i.i.i = icmp eq ptr %38, null
  br i1 %.not.i.i.i.i, label %_ZN5Yosys6IdPathD2Ev.exit, label %39

39:                                               ; preds = %_ZSt8_DestroyIPN5Yosys5RTLIL8IdStringES2_EvT_S4_RSaIT0_E.exit.i.i
  tail call void @_ZdlPv(ptr noundef nonnull %38) #32
  br label %_ZN5Yosys6IdPathD2Ev.exit

_ZN5Yosys6IdPathD2Ev.exit:                        ; preds = %_ZSt8_DestroyIPN5Yosys5RTLIL8IdStringES2_EvT_S4_RSaIT0_E.exit.i.i, %39
  ret void
}